; Function Attrs: mustprogress nounwind uwtable
define hidden noundef zeroext i1 @_ZN13ThreadService35set_thread_allocated_memory_enabledEb(i1 noundef zeroext %0) local_unnamed_addr #0 align 2 {
  %2 = zext i1 %0 to i8
  %3 = load ptr, ptr @Management_lock, align 8
  %.not.i.i = icmp eq ptr %3, null
  br i1 %.not.i.i, label %_ZN11MutexLockerC2EP5MutexNS0_18SafepointCheckFlagE.exit.thread, label %5

_ZN11MutexLockerC2EP5MutexNS0_18SafepointCheckFlagE.exit.thread: ; preds = %1
  %4 = load i8, ptr @_ZN13ThreadService32_thread_allocated_memory_enabledE, align 1
  store i8 %2, ptr @_ZN13ThreadService32_thread_allocated_memory_enabledE, align 1
  br label %_ZN11MutexLockerD2Ev.exit

5:                                                ; preds = %1
  tail call void @_ZN5Mutex4lockEv(ptr noundef nonnull align 8 dereferenceable(104) %3) #12
  %6 = load i8, ptr @_ZN13ThreadService32_thread_allocated_memory_enabledE, align 1
  store i8 %2, ptr @_ZN13ThreadService32_thread_allocated_memory_enabledE, align 1
  tail call void @_ZN5Mutex6unlockEv(ptr noundef nonnull align 8 dereferenceable(104) %3) #12
  br label %_ZN11MutexLockerD2Ev.exit

_ZN11MutexLockerD2Ev.exit:                        ; preds = %_ZN11MutexLockerC2EP5MutexNS0_18SafepointCheckFlagE.exit.thread, %5
  %.in = phi i8 [ %4, %_ZN11MutexLockerC2EP5MutexNS0_18SafepointCheckFlagE.exit.thread ], [ %6, %5 ]
  %7 = trunc i8 %.in to i1
  ret i1 %7
}